
GccApplication1.elf:     file format elf32-avr

Sections:
Idx Name          Size      VMA       LMA       File off  Algn
  0 .text         00000260  00000000  00000000  00000074  2**1
                  CONTENTS, ALLOC, LOAD, READONLY, CODE
  1 .data         00000030  00800060  00000260  000002d4  2**0
                  CONTENTS, ALLOC, LOAD, DATA
  2 .comment      00000030  00000000  00000000  00000304  2**0
                  CONTENTS, READONLY
  3 .note.gnu.avr.deviceinfo 0000003c  00000000  00000000  00000334  2**2
                  CONTENTS, READONLY
  4 .debug_aranges 00000058  00000000  00000000  00000370  2**0
                  CONTENTS, READONLY, DEBUGGING
  5 .debug_info   00000ad4  00000000  00000000  000003c8  2**0
                  CONTENTS, READONLY, DEBUGGING
  6 .debug_abbrev 000006de  00000000  00000000  00000e9c  2**0
                  CONTENTS, READONLY, DEBUGGING
  7 .debug_line   0000039c  00000000  00000000  0000157a  2**0
                  CONTENTS, READONLY, DEBUGGING
  8 .debug_frame  00000088  00000000  00000000  00001918  2**2
                  CONTENTS, READONLY, DEBUGGING
  9 .debug_str    00000532  00000000  00000000  000019a0  2**0
                  CONTENTS, READONLY, DEBUGGING
 10 .debug_loc    00000320  00000000  00000000  00001ed2  2**0
                  CONTENTS, READONLY, DEBUGGING
 11 .debug_ranges 00000038  00000000  00000000  000021f2  2**0
                  CONTENTS, READONLY, DEBUGGING

Disassembly of section .text:

00000000 <__vectors>:
   0:	0c 94 2a 00 	jmp	0x54	; 0x54 <__ctors_end>
   4:	0c 94 3f 00 	jmp	0x7e	; 0x7e <__bad_interrupt>
   8:	0c 94 3f 00 	jmp	0x7e	; 0x7e <__bad_interrupt>
   c:	0c 94 3f 00 	jmp	0x7e	; 0x7e <__bad_interrupt>
  10:	0c 94 3f 00 	jmp	0x7e	; 0x7e <__bad_interrupt>
  14:	0c 94 3f 00 	jmp	0x7e	; 0x7e <__bad_interrupt>
  18:	0c 94 3f 00 	jmp	0x7e	; 0x7e <__bad_interrupt>
  1c:	0c 94 3f 00 	jmp	0x7e	; 0x7e <__bad_interrupt>
  20:	0c 94 3f 00 	jmp	0x7e	; 0x7e <__bad_interrupt>
  24:	0c 94 3f 00 	jmp	0x7e	; 0x7e <__bad_interrupt>
  28:	0c 94 3f 00 	jmp	0x7e	; 0x7e <__bad_interrupt>
  2c:	0c 94 3f 00 	jmp	0x7e	; 0x7e <__bad_interrupt>
  30:	0c 94 3f 00 	jmp	0x7e	; 0x7e <__bad_interrupt>
  34:	0c 94 3f 00 	jmp	0x7e	; 0x7e <__bad_interrupt>
  38:	0c 94 3f 00 	jmp	0x7e	; 0x7e <__bad_interrupt>
  3c:	0c 94 3f 00 	jmp	0x7e	; 0x7e <__bad_interrupt>
  40:	0c 94 3f 00 	jmp	0x7e	; 0x7e <__bad_interrupt>
  44:	0c 94 3f 00 	jmp	0x7e	; 0x7e <__bad_interrupt>
  48:	0c 94 3f 00 	jmp	0x7e	; 0x7e <__bad_interrupt>
  4c:	0c 94 3f 00 	jmp	0x7e	; 0x7e <__bad_interrupt>
  50:	0c 94 3f 00 	jmp	0x7e	; 0x7e <__bad_interrupt>

00000054 <__ctors_end>:
  54:	11 24       	eor	r1, r1
  56:	1f be       	out	0x3f, r1	; 63
  58:	cf e5       	ldi	r28, 0x5F	; 95
  5a:	d8 e0       	ldi	r29, 0x08	; 8
  5c:	de bf       	out	0x3e, r29	; 62
  5e:	cd bf       	out	0x3d, r28	; 61

00000060 <__do_copy_data>:
  60:	10 e0       	ldi	r17, 0x00	; 0
  62:	a0 e6       	ldi	r26, 0x60	; 96
  64:	b0 e0       	ldi	r27, 0x00	; 0
  66:	e0 e6       	ldi	r30, 0x60	; 96
  68:	f2 e0       	ldi	r31, 0x02	; 2
  6a:	02 c0       	rjmp	.+4      	; 0x70 <__do_copy_data+0x10>
  6c:	05 90       	lpm	r0, Z+
  6e:	0d 92       	st	X+, r0
  70:	a0 39       	cpi	r26, 0x90	; 144
  72:	b1 07       	cpc	r27, r17
  74:	d9 f7       	brne	.-10     	; 0x6c <__do_copy_data+0xc>
  76:	0e 94 0d 01 	call	0x21a	; 0x21a <main>
  7a:	0c 94 2e 01 	jmp	0x25c	; 0x25c <_exit>

0000007e <__bad_interrupt>:
  7e:	0c 94 00 00 	jmp	0	; 0x0 <__vectors>

00000082 <Dio_SetPinMode>:
{
	
	Pin_Type Port_Index = Pin_ID / 8;
	Pin_Type Pin_Index  = Pin_ID % 8;
	
	*ReadBufferPTR = GetBit(*DIO_RegPIN[Port_Index],Pin_Index);
  82:	28 2f       	mov	r18, r24
  84:	26 95       	lsr	r18
  86:	26 95       	lsr	r18
  88:	26 95       	lsr	r18
  8a:	87 70       	andi	r24, 0x07	; 7
  8c:	61 30       	cpi	r22, 0x01	; 1
  8e:	39 f1       	breq	.+78     	; 0xde <Dio_SetPinMode+0x5c>
  90:	38 f0       	brcs	.+14     	; 0xa0 <Dio_SetPinMode+0x1e>
  92:	62 30       	cpi	r22, 0x02	; 2
  94:	09 f4       	brne	.+2      	; 0x98 <Dio_SetPinMode+0x16>
  96:	43 c0       	rjmp	.+134    	; 0x11e <Dio_SetPinMode+0x9c>
  98:	63 30       	cpi	r22, 0x03	; 3
  9a:	09 f4       	brne	.+2      	; 0x9e <Dio_SetPinMode+0x1c>
  9c:	57 c0       	rjmp	.+174    	; 0x14c <Dio_SetPinMode+0xca>
  9e:	08 95       	ret
  a0:	30 e0       	ldi	r19, 0x00	; 0
  a2:	22 0f       	add	r18, r18
  a4:	33 1f       	adc	r19, r19
  a6:	f9 01       	movw	r30, r18
  a8:	e0 58       	subi	r30, 0x80	; 128
  aa:	ff 4f       	sbci	r31, 0xFF	; 255
  ac:	01 90       	ld	r0, Z+
  ae:	f0 81       	ld	r31, Z
  b0:	e0 2d       	mov	r30, r0
  b2:	41 e0       	ldi	r20, 0x01	; 1
  b4:	50 e0       	ldi	r21, 0x00	; 0
  b6:	ba 01       	movw	r22, r20
  b8:	02 c0       	rjmp	.+4      	; 0xbe <Dio_SetPinMode+0x3c>
  ba:	66 0f       	add	r22, r22
  bc:	77 1f       	adc	r23, r23
  be:	8a 95       	dec	r24
  c0:	e2 f7       	brpl	.-8      	; 0xba <Dio_SetPinMode+0x38>
  c2:	cb 01       	movw	r24, r22
  c4:	90 81       	ld	r25, Z
  c6:	98 2b       	or	r25, r24
  c8:	90 83       	st	Z, r25
  ca:	f9 01       	movw	r30, r18
  cc:	e8 57       	subi	r30, 0x78	; 120
  ce:	ff 4f       	sbci	r31, 0xFF	; 255
  d0:	01 90       	ld	r0, Z+
  d2:	f0 81       	ld	r31, Z
  d4:	e0 2d       	mov	r30, r0
  d6:	90 81       	ld	r25, Z
  d8:	89 2b       	or	r24, r25
  da:	80 83       	st	Z, r24
  dc:	08 95       	ret
  de:	30 e0       	ldi	r19, 0x00	; 0
  e0:	22 0f       	add	r18, r18
  e2:	33 1f       	adc	r19, r19
  e4:	f9 01       	movw	r30, r18
  e6:	e0 58       	subi	r30, 0x80	; 128
  e8:	ff 4f       	sbci	r31, 0xFF	; 255
  ea:	01 90       	ld	r0, Z+
  ec:	f0 81       	ld	r31, Z
  ee:	e0 2d       	mov	r30, r0
  f0:	41 e0       	ldi	r20, 0x01	; 1
  f2:	50 e0       	ldi	r21, 0x00	; 0
  f4:	ba 01       	movw	r22, r20
  f6:	02 c0       	rjmp	.+4      	; 0xfc <Dio_SetPinMode+0x7a>
  f8:	66 0f       	add	r22, r22
  fa:	77 1f       	adc	r23, r23
  fc:	8a 95       	dec	r24
  fe:	e2 f7       	brpl	.-8      	; 0xf8 <Dio_SetPinMode+0x76>
 100:	cb 01       	movw	r24, r22
 102:	90 81       	ld	r25, Z
 104:	98 2b       	or	r25, r24
 106:	90 83       	st	Z, r25
 108:	f9 01       	movw	r30, r18
 10a:	e8 57       	subi	r30, 0x78	; 120
 10c:	ff 4f       	sbci	r31, 0xFF	; 255
 10e:	01 90       	ld	r0, Z+
 110:	f0 81       	ld	r31, Z
 112:	e0 2d       	mov	r30, r0
 114:	80 95       	com	r24
 116:	90 81       	ld	r25, Z
 118:	89 23       	and	r24, r25
 11a:	80 83       	st	Z, r24
 11c:	08 95       	ret
 11e:	e2 2f       	mov	r30, r18
 120:	f0 e0       	ldi	r31, 0x00	; 0
 122:	ee 0f       	add	r30, r30
 124:	ff 1f       	adc	r31, r31
 126:	e0 58       	subi	r30, 0x80	; 128
 128:	ff 4f       	sbci	r31, 0xFF	; 255
 12a:	01 90       	ld	r0, Z+
 12c:	f0 81       	ld	r31, Z
 12e:	e0 2d       	mov	r30, r0
 130:	21 e0       	ldi	r18, 0x01	; 1
 132:	30 e0       	ldi	r19, 0x00	; 0
 134:	a9 01       	movw	r20, r18
 136:	02 c0       	rjmp	.+4      	; 0x13c <Dio_SetPinMode+0xba>
 138:	44 0f       	add	r20, r20
 13a:	55 1f       	adc	r21, r21
 13c:	8a 95       	dec	r24
 13e:	e2 f7       	brpl	.-8      	; 0x138 <Dio_SetPinMode+0xb6>
 140:	ca 01       	movw	r24, r20
 142:	80 95       	com	r24
 144:	90 81       	ld	r25, Z
 146:	89 23       	and	r24, r25
 148:	80 83       	st	Z, r24
 14a:	08 95       	ret
 14c:	30 e0       	ldi	r19, 0x00	; 0
 14e:	22 0f       	add	r18, r18
 150:	33 1f       	adc	r19, r19
 152:	f9 01       	movw	r30, r18
 154:	e0 58       	subi	r30, 0x80	; 128
 156:	ff 4f       	sbci	r31, 0xFF	; 255
 158:	01 90       	ld	r0, Z+
 15a:	f0 81       	ld	r31, Z
 15c:	e0 2d       	mov	r30, r0
 15e:	41 e0       	ldi	r20, 0x01	; 1
 160:	50 e0       	ldi	r21, 0x00	; 0
 162:	ba 01       	movw	r22, r20
 164:	02 c0       	rjmp	.+4      	; 0x16a <Dio_SetPinMode+0xe8>
 166:	66 0f       	add	r22, r22
 168:	77 1f       	adc	r23, r23
 16a:	8a 95       	dec	r24
 16c:	e2 f7       	brpl	.-8      	; 0x166 <Dio_SetPinMode+0xe4>
 16e:	cb 01       	movw	r24, r22
 170:	80 95       	com	r24
 172:	90 81       	ld	r25, Z
 174:	98 23       	and	r25, r24
 176:	90 83       	st	Z, r25
 178:	f9 01       	movw	r30, r18
 17a:	e8 57       	subi	r30, 0x78	; 120
 17c:	ff 4f       	sbci	r31, 0xFF	; 255
 17e:	01 90       	ld	r0, Z+
 180:	f0 81       	ld	r31, Z
 182:	e0 2d       	mov	r30, r0
 184:	90 81       	ld	r25, Z
 186:	89 23       	and	r24, r25
 188:	80 83       	st	Z, r24
 18a:	08 95       	ret

0000018c <DIO_Init>:
 18c:	0f 93       	push	r16
 18e:	1f 93       	push	r17
 190:	cf 93       	push	r28
 192:	00 e6       	ldi	r16, 0x60	; 96
 194:	10 e0       	ldi	r17, 0x00	; 0
 196:	c0 e0       	ldi	r28, 0x00	; 0
 198:	f8 01       	movw	r30, r16
 19a:	61 91       	ld	r22, Z+
 19c:	8f 01       	movw	r16, r30
 19e:	8c 2f       	mov	r24, r28
 1a0:	0e 94 41 00 	call	0x82	; 0x82 <Dio_SetPinMode>
 1a4:	cf 5f       	subi	r28, 0xFF	; 255
 1a6:	c0 32       	cpi	r28, 0x20	; 32
 1a8:	b9 f7       	brne	.-18     	; 0x198 <DIO_Init+0xc>
 1aa:	cf 91       	pop	r28
 1ac:	1f 91       	pop	r17
 1ae:	0f 91       	pop	r16
 1b0:	08 95       	ret

000001b2 <DIO_WritePinVal>:
}

void DIO_WritePinVal(Pin_Type Pin_ID ,u8 VALUE )
{
	
	Pin_Type Port_Index = Pin_ID / 8;
 1b2:	e8 2f       	mov	r30, r24
 1b4:	e6 95       	lsr	r30
 1b6:	e6 95       	lsr	r30
 1b8:	e6 95       	lsr	r30
	Pin_Type Pin_Index  = Pin_ID % 8;
 1ba:	87 70       	andi	r24, 0x07	; 7
	if (VALUE==HIGH)
 1bc:	61 30       	cpi	r22, 0x01	; 1
 1be:	a9 f4       	brne	.+42     	; 0x1ea <DIO_WritePinVal+0x38>
	{
		SetBit(*DIO_RegPORT[Port_Index],Pin_Index);
 1c0:	f0 e0       	ldi	r31, 0x00	; 0
 1c2:	ee 0f       	add	r30, r30
 1c4:	ff 1f       	adc	r31, r31
 1c6:	e8 57       	subi	r30, 0x78	; 120
 1c8:	ff 4f       	sbci	r31, 0xFF	; 255
 1ca:	01 90       	ld	r0, Z+
 1cc:	f0 81       	ld	r31, Z
 1ce:	e0 2d       	mov	r30, r0
 1d0:	21 e0       	ldi	r18, 0x01	; 1
 1d2:	30 e0       	ldi	r19, 0x00	; 0
 1d4:	a9 01       	movw	r20, r18
 1d6:	02 c0       	rjmp	.+4      	; 0x1dc <DIO_WritePinVal+0x2a>
 1d8:	44 0f       	add	r20, r20
 1da:	55 1f       	adc	r21, r21
 1dc:	8a 95       	dec	r24
 1de:	e2 f7       	brpl	.-8      	; 0x1d8 <DIO_WritePinVal+0x26>
 1e0:	ca 01       	movw	r24, r20
 1e2:	90 81       	ld	r25, Z
 1e4:	89 2b       	or	r24, r25
 1e6:	80 83       	st	Z, r24
 1e8:	08 95       	ret
	}
	else if (VALUE==LOW)
 1ea:	61 11       	cpse	r22, r1
 1ec:	15 c0       	rjmp	.+42     	; 0x218 <DIO_WritePinVal+0x66>
	{
		ClrBit(*DIO_RegPORT[Port_Index],Pin_Index);
 1ee:	f0 e0       	ldi	r31, 0x00	; 0
 1f0:	ee 0f       	add	r30, r30
 1f2:	ff 1f       	adc	r31, r31
 1f4:	e8 57       	subi	r30, 0x78	; 120
 1f6:	ff 4f       	sbci	r31, 0xFF	; 255
 1f8:	01 90       	ld	r0, Z+
 1fa:	f0 81       	ld	r31, Z
 1fc:	e0 2d       	mov	r30, r0
 1fe:	21 e0       	ldi	r18, 0x01	; 1
 200:	30 e0       	ldi	r19, 0x00	; 0
 202:	a9 01       	movw	r20, r18
 204:	02 c0       	rjmp	.+4      	; 0x20a <DIO_WritePinVal+0x58>
 206:	44 0f       	add	r20, r20
 208:	55 1f       	adc	r21, r21
 20a:	8a 95       	dec	r24
 20c:	e2 f7       	brpl	.-8      	; 0x206 <DIO_WritePinVal+0x54>
 20e:	ca 01       	movw	r24, r20
 210:	80 95       	com	r24
 212:	90 81       	ld	r25, Z
 214:	89 23       	and	r24, r25
 216:	80 83       	st	Z, r24
 218:	08 95       	ret

0000021a <main>:

#include "Dio_Int.h"
#include <util/delay.h>
int main(void)
{
	DIO_Init();
 21a:	0e 94 c6 00 	call	0x18c	; 0x18c <DIO_Init>
	Dio_SetPinMode(Pin_A1,OutPut_High);
 21e:	60 e0       	ldi	r22, 0x00	; 0
 220:	81 e0       	ldi	r24, 0x01	; 1
 222:	0e 94 41 00 	call	0x82	; 0x82 <Dio_SetPinMode>
	/*_delay_ms(500);
	DIO_WritePinVal(Pin_A1,LOW);
	_delay_ms(500);*/
    while(1)
	{
		DIO_WritePinVal(Pin_A6,HIGH);
 226:	61 e0       	ldi	r22, 0x01	; 1
 228:	86 e0       	ldi	r24, 0x06	; 6
 22a:	0e 94 d9 00 	call	0x1b2	; 0x1b2 <DIO_WritePinVal>
	#else
		//round up by default
		__ticks_dc = (uint32_t)(ceil(fabs(__tmp)));
	#endif

	__builtin_avr_delay_cycles(__ticks_dc);
 22e:	2f ef       	ldi	r18, 0xFF	; 255
 230:	83 e2       	ldi	r24, 0x23	; 35
 232:	94 ef       	ldi	r25, 0xF4	; 244
 234:	21 50       	subi	r18, 0x01	; 1
 236:	80 40       	sbci	r24, 0x00	; 0
 238:	90 40       	sbci	r25, 0x00	; 0
 23a:	e1 f7       	brne	.-8      	; 0x234 <main+0x1a>
 23c:	00 c0       	rjmp	.+0      	; 0x23e <main+0x24>
 23e:	00 00       	nop
		_delay_ms(5000);
		DIO_WritePinVal(Pin_A6,LOW);
 240:	60 e0       	ldi	r22, 0x00	; 0
 242:	86 e0       	ldi	r24, 0x06	; 6
 244:	0e 94 d9 00 	call	0x1b2	; 0x1b2 <DIO_WritePinVal>
 248:	2f ef       	ldi	r18, 0xFF	; 255
 24a:	83 e2       	ldi	r24, 0x23	; 35
 24c:	94 ef       	ldi	r25, 0xF4	; 244
 24e:	21 50       	subi	r18, 0x01	; 1
 250:	80 40       	sbci	r24, 0x00	; 0
 252:	90 40       	sbci	r25, 0x00	; 0
 254:	e1 f7       	brne	.-8      	; 0x24e <main+0x34>
 256:	00 c0       	rjmp	.+0      	; 0x258 <main+0x3e>
 258:	00 00       	nop
 25a:	e5 cf       	rjmp	.-54     	; 0x226 <main+0xc>

0000025c <_exit>:
 25c:	f8 94       	cli

0000025e <__stop_program>:
 25e:	ff cf       	rjmp	.-2      	; 0x25e <__stop_program>
